; Function Attrs: mustprogress nounwind willreturn uwtable
define void @Dch_ObjAddToFrontier(ptr noundef captures(none) %0, ptr noundef %1, ptr noundef captures(none) %2) local_unnamed_addr #5 {
  %4 = getelementptr i8, ptr %0, i64 56
  %.val = load ptr, ptr %4, align 8, !tbaa !3
  %5 = getelementptr i8, ptr %1, i64 36
  %.val13 = load i32, ptr %5, align 4, !tbaa !17
  %6 = sext i32 %.val13 to i64
  %7 = getelementptr inbounds i32, ptr %.val, i64 %6
  %8 = load i32, ptr %7, align 4, !tbaa !20
  %.not = icmp eq i32 %8, 0
  br i1 %.not, label %9, label %86

9:                                                ; preds = %3
  %10 = getelementptr i8, ptr %1, i64 24
  %.val14 = load i64, ptr %10, align 8
  %11 = and i64 %.val14, 7
  %.not25 = icmp eq i64 %11, 1
  br i1 %.not25, label %86, label %12

12:                                               ; preds = %9
  %13 = getelementptr inbounds nuw i8, ptr %0, i64 64
  %14 = load ptr, ptr %13, align 8, !tbaa !37
  %15 = getelementptr inbounds nuw i8, ptr %14, i64 4
  %16 = load i32, ptr %15, align 4, !tbaa !26
  %17 = load i32, ptr %14, align 8, !tbaa !36
  %18 = icmp eq i32 %16, %17
  br i1 %18, label %19, label %.Vec_PtrGrow.exit11_crit_edge.i

.Vec_PtrGrow.exit11_crit_edge.i:                  ; preds = %12
  %.phi.trans.insert.i = getelementptr inbounds nuw i8, ptr %14, i64 8
  %.pre.i = load ptr, ptr %.phi.trans.insert.i, align 8, !tbaa !28
  br label %Vec_PtrPush.exit

19:                                               ; preds = %12
  %20 = icmp slt i32 %16, 16
  br i1 %20, label %21, label %29

21:                                               ; preds = %19
  %22 = getelementptr inbounds nuw i8, ptr %14, i64 8
  %23 = load ptr, ptr %22, align 8, !tbaa !28
  %.not9.i.i = icmp eq ptr %23, null
  br i1 %.not9.i.i, label %26, label %24

24:                                               ; preds = %21
  %25 = tail call dereferenceable_or_null(128) ptr @realloc(ptr noundef nonnull %23, i64 noundef 128) #9
  br label %Vec_PtrGrow.exit.i

26:                                               ; preds = %21
  %27 = tail call noalias dereferenceable_or_null(128) ptr @malloc(i64 noundef 128) #8
  br label %Vec_PtrGrow.exit.i

Vec_PtrGrow.exit.i:                               ; preds = %26, %24
  %28 = phi ptr [ %25, %24 ], [ %27, %26 ]
  store ptr %28, ptr %22, align 8, !tbaa !28
  store i32 16, ptr %14, align 8, !tbaa !36
  br label %Vec_PtrPush.exit

29:                                               ; preds = %19
  %30 = shl nuw nsw i32 %16, 1
  %31 = getelementptr inbounds nuw i8, ptr %14, i64 8
  %32 = load ptr, ptr %31, align 8, !tbaa !28
  %.not9.i10.i = icmp eq ptr %32, null
  %33 = zext nneg i32 %30 to i64
  %34 = shl nuw nsw i64 %33, 3
  br i1 %.not9.i10.i, label %37, label %35

35:                                               ; preds = %29
  %36 = tail call ptr @realloc(ptr noundef nonnull %32, i64 noundef %34) #9
  br label %39

37:                                               ; preds = %29
  %38 = tail call noalias ptr @malloc(i64 noundef %34) #8
  br label %39

39:                                               ; preds = %37, %35
  %40 = phi ptr [ %36, %35 ], [ %38, %37 ]
  store ptr %40, ptr %31, align 8, !tbaa !28
  store i32 %30, ptr %14, align 8, !tbaa !36
  br label %Vec_PtrPush.exit

Vec_PtrPush.exit:                                 ; preds = %.Vec_PtrGrow.exit11_crit_edge.i, %Vec_PtrGrow.exit.i, %39
  %41 = phi ptr [ %.pre.i, %.Vec_PtrGrow.exit11_crit_edge.i ], [ %40, %39 ], [ %28, %Vec_PtrGrow.exit.i ]
  %42 = load i32, ptr %15, align 4, !tbaa !26
  %43 = add nsw i32 %42, 1
  store i32 %43, ptr %15, align 4, !tbaa !26
  %44 = sext i32 %42 to i64
  %45 = getelementptr inbounds ptr, ptr %41, i64 %44
  store ptr %1, ptr %45, align 8, !tbaa !29
  %46 = getelementptr inbounds nuw i8, ptr %0, i64 48
  %47 = load i32, ptr %46, align 8, !tbaa !38
  %48 = add nsw i32 %47, 1
  store i32 %48, ptr %46, align 8, !tbaa !38
  %.val15 = load ptr, ptr %4, align 8, !tbaa !3
  %.val16 = load i32, ptr %5, align 4, !tbaa !17
  %49 = sext i32 %.val16 to i64
  %50 = getelementptr inbounds i32, ptr %.val15, i64 %49
  store i32 %47, ptr %50, align 4, !tbaa !20
  %.val17 = load i64, ptr %10, align 8
  %51 = trunc i64 %.val17 to i32
  %52 = and i32 %51, 7
  %53 = add nsw i32 %52, -7
  %narrow.i = icmp ult i32 %53, -2
  br i1 %narrow.i, label %86, label %54

54:                                               ; preds = %Vec_PtrPush.exit
  %55 = getelementptr inbounds nuw i8, ptr %2, i64 4
  %56 = load i32, ptr %55, align 4, !tbaa !26
  %57 = load i32, ptr %2, align 8, !tbaa !36
  %58 = icmp eq i32 %56, %57
  br i1 %58, label %59, label %.Vec_PtrGrow.exit11_crit_edge.i18

.Vec_PtrGrow.exit11_crit_edge.i18:                ; preds = %54
  %.phi.trans.insert.i19 = getelementptr inbounds nuw i8, ptr %2, i64 8
  %.pre.i20 = load ptr, ptr %.phi.trans.insert.i19, align 8, !tbaa !28
  br label %Vec_PtrPush.exit24

59:                                               ; preds = %54
  %60 = icmp slt i32 %56, 16
  br i1 %60, label %61, label %69

61:                                               ; preds = %59
  %62 = getelementptr inbounds nuw i8, ptr %2, i64 8
  %63 = load ptr, ptr %62, align 8, !tbaa !28
  %.not9.i.i22 = icmp eq ptr %63, null
  br i1 %.not9.i.i22, label %66, label %64

64:                                               ; preds = %61
  %65 = tail call dereferenceable_or_null(128) ptr @realloc(ptr noundef nonnull %63, i64 noundef 128) #9
  br label %Vec_PtrGrow.exit.i23

66:                                               ; preds = %61
  %67 = tail call noalias dereferenceable_or_null(128) ptr @malloc(i64 noundef 128) #8
  br label %Vec_PtrGrow.exit.i23

Vec_PtrGrow.exit.i23:                             ; preds = %66, %64
  %68 = phi ptr [ %65, %64 ], [ %67, %66 ]
  store ptr %68, ptr %62, align 8, !tbaa !28
  store i32 16, ptr %2, align 8, !tbaa !36
  br label %Vec_PtrPush.exit24

69:                                               ; preds = %59
  %70 = shl nuw nsw i32 %56, 1
  %71 = getelementptr inbounds nuw i8, ptr %2, i64 8
  %72 = load ptr, ptr %71, align 8, !tbaa !28
  %.not9.i10.i21 = icmp eq ptr %72, null
  %73 = zext nneg i32 %70 to i64
  %74 = shl nuw nsw i64 %73, 3
  br i1 %.not9.i10.i21, label %77, label %75

75:                                               ; preds = %69
  %76 = tail call ptr @realloc(ptr noundef nonnull %72, i64 noundef %74) #9
  br label %79

77:                                               ; preds = %69
  %78 = tail call noalias ptr @malloc(i64 noundef %74) #8
  br label %79

79:                                               ; preds = %77, %75
  %80 = phi ptr [ %76, %75 ], [ %78, %77 ]
  store ptr %80, ptr %71, align 8, !tbaa !28
  store i32 %70, ptr %2, align 8, !tbaa !36
  br label %Vec_PtrPush.exit24

Vec_PtrPush.exit24:                               ; preds = %.Vec_PtrGrow.exit11_crit_edge.i18, %Vec_PtrGrow.exit.i23, %79
  %81 = phi ptr [ %.pre.i20, %.Vec_PtrGrow.exit11_crit_edge.i18 ], [ %80, %79 ], [ %68, %Vec_PtrGrow.exit.i23 ]
  %82 = load i32, ptr %55, align 4, !tbaa !26
  %83 = add nsw i32 %82, 1
  store i32 %83, ptr %55, align 4, !tbaa !26
  %84 = sext i32 %82 to i64
  %85 = getelementptr inbounds ptr, ptr %81, i64 %84
  store ptr %1, ptr %85, align 8, !tbaa !29
  br label %86

86:                                               ; preds = %9, %3, %Vec_PtrPush.exit24, %Vec_PtrPush.exit
  ret void
}